; Function Attrs: null_pointer_is_valid sspstrong uwtable
define internal i32 @dissect_aim_msg_outgoing(ptr noundef %0, ptr noundef %1, ptr noundef %2) #0 {
  %4 = load i32, ptr @hf_aim_icbm_cookie, align 4
  %5 = tail call ptr @proto_tree_add_item(ptr noundef %2, i32 noundef %4, ptr noundef %0, i32 noundef 0, i32 noundef 8, i32 noundef 0)
  %6 = tail call zeroext i16 @tvb_get_ntohs(ptr noundef %0, i32 noundef 8)
  %7 = load i32, ptr @hf_aim_message_channel_id, align 4
  %8 = tail call ptr @proto_tree_add_item(ptr noundef %2, i32 noundef %7, ptr noundef %0, i32 noundef 8, i32 noundef 2, i32 noundef 0)
  %9 = getelementptr inbounds nuw i8, ptr %1, i64 408
  %10 = load ptr, ptr %9, align 8
  %11 = tail call zeroext i8 @tvb_get_uint8(ptr noundef %0, i32 noundef 10)
  %12 = zext i8 %11 to i32
  %13 = tail call ptr @tvb_get_string_enc(ptr noundef %10, ptr noundef %0, i32 noundef 11, i32 noundef %12, i32 noundef 2)
  %14 = getelementptr inbounds nuw i8, ptr %1, i64 8
  %15 = load ptr, ptr %14, align 8
  %16 = load ptr, ptr %9, align 8
  %17 = zext i8 %11 to i64
  %18 = tail call ptr @format_text(ptr noundef %16, ptr noundef %13, i64 noundef %17)
  tail call void (ptr, i32, ptr, ...) @col_append_fstr(ptr noundef %15, i32 noundef 25, ptr noundef nonnull @.str.859, ptr noundef %18)
  %19 = tail call fastcc i32 @dissect_aim_buddyname(ptr noundef %0, ptr noundef %1, i32 noundef 10, ptr noundef %2)
  switch i16 %6, label %dissect_aim_tlv_sequence.exit [
    i16 1, label %.split29
    i16 2, label %.split
  ]

.split29:                                         ; preds = %3
  %20 = tail call i32 @tvb_reported_length_remaining(ptr noundef %0, i32 noundef %19)
  %21 = icmp sgt i32 %20, 0
  br i1 %21, label %.lr.ph.i, label %dissect_aim_tlv_sequence.exit

.lr.ph.i:                                         ; preds = %.split29, %.lr.ph.i
  %.07.i = phi i32 [ %22, %.lr.ph.i ], [ %19, %.split29 ]
  %22 = tail call fastcc i32 @dissect_aim_tlv(ptr noundef %0, ptr noundef %1, i32 noundef %.07.i, ptr noundef %2, ptr noundef nonnull @aim_messaging_incoming_ch1_tlvs)
  %23 = tail call i32 @tvb_reported_length_remaining(ptr noundef %0, i32 noundef %22)
  %24 = icmp sgt i32 %23, 0
  br i1 %24, label %.lr.ph.i, label %dissect_aim_tlv_sequence.exit, !llvm.loop !8

.split:                                           ; preds = %3
  %25 = tail call i32 @tvb_reported_length_remaining(ptr noundef %0, i32 noundef %19)
  %26 = icmp sgt i32 %25, 0
  br i1 %26, label %.lr.ph.i31, label %dissect_aim_tlv_sequence.exit

.lr.ph.i31:                                       ; preds = %.split, %.lr.ph.i31
  %.07.i32 = phi i32 [ %27, %.lr.ph.i31 ], [ %19, %.split ]
  %27 = tail call fastcc i32 @dissect_aim_tlv(ptr noundef %0, ptr noundef %1, i32 noundef %.07.i32, ptr noundef %2, ptr noundef nonnull @aim_messaging_incoming_ch2_tlvs)
  %28 = tail call i32 @tvb_reported_length_remaining(ptr noundef %0, i32 noundef %27)
  %29 = icmp sgt i32 %28, 0
  br i1 %29, label %.lr.ph.i31, label %dissect_aim_tlv_sequence.exit, !llvm.loop !8

dissect_aim_tlv_sequence.exit:                    ; preds = %.lr.ph.i31, %.lr.ph.i, %.split, %.split29, %3
  %.0 = phi i32 [ %19, %3 ], [ %19, %.split29 ], [ %19, %.split ], [ %22, %.lr.ph.i ], [ %27, %.lr.ph.i31 ]
  ret i32 %.0
}